target datalayout = "e-m:e-p270:32:32-p271:32:32-p272:64:64-i64:64-i128:128-f80:128-n8:16:32:64-S128"
target triple = "x86_64-pc-linux-gnu"

%struct.dtCompressedTile = type { i32, ptr, ptr, i32, ptr, i32, i32, ptr }
%struct.dtTileCacheParams = type { [3 x float], float, float, i32, i32, float, float, float, float, i32, i32 }
%class.dtTileCache = type { i32, i32, ptr, ptr, ptr, i32, i32, %struct.dtTileCacheParams, ptr, ptr, ptr, ptr, ptr, [64 x %"struct.dtTileCache::ObstacleRequest"], i32, [64 x i32], i32 }
%"struct.dtTileCache::ObstacleRequest" = type { i32, i32 }

; Function Attrs: mustprogress nounwind uwtable
define linkonce_odr dso_local noundef ptr @_ZNK11dtTileCache9getParamsEv(ptr noundef nonnull align 8 dereferenceable(912) %0) #0 comdat align 2 {
  %2 = alloca ptr, align 8
  store ptr %0, ptr %2, align 8
  %3 = load ptr, ptr %2, align 8
  %4 = getelementptr inbounds %class.dtTileCache, ptr %3, i32 0, i32 7
  ret ptr %4
}

; Function Attrs: mustprogress nounwind uwtable
define linkonce_odr dso_local noundef ptr @_ZNK11dtTileCache7getTileEi(ptr noundef nonnull align 8 dereferenceable(912) %0, i32 noundef %1) #0 comdat align 2 {
  %3 = alloca ptr, align 8
  %4 = alloca i32, align 4
  store ptr %0, ptr %3, align 8
  store i32 %1, ptr %4, align 4
  %5 = load ptr, ptr %3, align 8
  %6 = getelementptr inbounds %class.dtTileCache, ptr %5, i32 0, i32 4
  %7 = load ptr, ptr %6, align 8
  %8 = load i32, ptr %4, align 4
  %9 = sext i32 %8 to i64
  %10 = getelementptr inbounds %struct.dtCompressedTile, ptr %7, i64 %9
  ret ptr %10
}

; Function Attrs: mustprogress nounwind uwtable
define linkonce_odr dso_local noundef i32 @_ZNK11dtTileCache12getTileCountEv(ptr noundef nonnull align 8 dereferenceable(912) %0) #0 comdat align 2 {
  %2 = alloca ptr, align 8
  store ptr %0, ptr %2, align 8
  %3 = load ptr, ptr %2, align 8
  %4 = getelementptr inbounds %class.dtTileCache, ptr %3, i32 0, i32 7
  %5 = getelementptr inbounds %struct.dtTileCacheParams, ptr %4, i32 0, i32 9
  %6 = load i32, ptr %5, align 4
  ret i32 %6
}

; Function Attrs: mustprogress uwtable
define dso_local void @_Z9drawTilesP11duDebugDrawP11dtTileCache(ptr noundef %0, ptr noundef %1) #5 {
  %3 = alloca ptr, align 8
  %4 = alloca ptr, align 8
  %5 = alloca [6 x i32], align 16
  %6 = alloca [3 x float], align 4
  %7 = alloca [3 x float], align 4
  %8 = alloca i32, align 4
  %9 = alloca ptr, align 8
  %10 = alloca i32, align 4
  %11 = alloca i32, align 4
  %12 = alloca ptr, align 8
  %13 = alloca i32, align 4
  %14 = alloca float, align 4
  store ptr %0, ptr %3, align 8
  store ptr %1, ptr %4, align 8
  store i32 0, ptr %8, align 4
  br label %15

15:                                               ; preds = %55, %2
  %16 = load i32, ptr %8, align 4
  %17 = load ptr, ptr %4, align 8
  %18 = call noundef i32 @_ZNK11dtTileCache12getTileCountEv(ptr noundef nonnull align 8 dereferenceable(912) %17)
  %19 = icmp slt i32 %16, %18
  br i1 %19, label %20, label %58

20:                                               ; preds = %15
  %21 = load ptr, ptr %4, align 8
  %22 = load i32, ptr %8, align 4
  %23 = call noundef ptr @_ZNK11dtTileCache7getTileEi(ptr noundef nonnull align 8 dereferenceable(912) %21, i32 noundef %22)
  store ptr %23, ptr %9, align 8
  %24 = load ptr, ptr %9, align 8
  %25 = getelementptr inbounds %struct.dtCompressedTile, ptr %24, i32 0, i32 1
  %26 = load ptr, ptr %25, align 8
  %27 = icmp ne ptr %26, null
  br i1 %27, label %29, label %28

28:                                               ; preds = %20
  br label %55

29:                                               ; preds = %20
  %30 = load ptr, ptr %4, align 8
  %31 = load ptr, ptr %9, align 8
  %32 = getelementptr inbounds %struct.dtCompressedTile, ptr %31, i32 0, i32 1
  %33 = load ptr, ptr %32, align 8
  %34 = getelementptr inbounds [3 x float], ptr %6, i64 0, i64 0
  %35 = getelementptr inbounds [3 x float], ptr %7, i64 0, i64 0
  call void @_ZNK11dtTileCache19calcTightTileBoundsEPK22dtTileCacheLayerHeaderPfS3_(ptr noundef nonnull align 8 dereferenceable(912) %30, ptr noundef %33, ptr noundef %34, ptr noundef %35)
  %36 = load i32, ptr %8, align 4
  %37 = call noundef i32 @_Z10duIntToColii(i32 noundef %36, i32 noundef 64)
  store i32 %37, ptr %10, align 4
  %38 = getelementptr inbounds [6 x i32], ptr %5, i64 0, i64 0
  %39 = load i32, ptr %10, align 4
  %40 = load i32, ptr %10, align 4
  call void @_Z15duCalcBoxColorsPjjj(ptr noundef %38, i32 noundef %39, i32 noundef %40)
  %41 = load ptr, ptr %3, align 8
  %42 = getelementptr inbounds [3 x float], ptr %6, i64 0, i64 0
  %43 = load float, ptr %42, align 4
  %44 = getelementptr inbounds [3 x float], ptr %6, i64 0, i64 1
  %45 = load float, ptr %44, align 4
  %46 = getelementptr inbounds [3 x float], ptr %6, i64 0, i64 2
  %47 = load float, ptr %46, align 4
  %48 = getelementptr inbounds [3 x float], ptr %7, i64 0, i64 0
  %49 = load float, ptr %48, align 4
  %50 = getelementptr inbounds [3 x float], ptr %7, i64 0, i64 1
  %51 = load float, ptr %50, align 4
  %52 = getelementptr inbounds [3 x float], ptr %7, i64 0, i64 2
  %53 = load float, ptr %52, align 4
  %54 = getelementptr inbounds [6 x i32], ptr %5, i64 0, i64 0
  call void @_Z14duDebugDrawBoxP11duDebugDrawffffffPKj(ptr noundef %41, float noundef %43, float noundef %45, float noundef %47, float noundef %49, float noundef %51, float noundef %53, ptr noundef %54)
  br label %55

55:                                               ; preds = %29, %28
  %56 = load i32, ptr %8, align 4
  %57 = add nsw i32 %56, 1
  store i32 %57, ptr %8, align 4
  br label %15, !llvm.loop !11

58:                                               ; preds = %15
  store i32 0, ptr %11, align 4
  br label %59

59:                                               ; preds = %113, %58
  %60 = load i32, ptr %11, align 4
  %61 = load ptr, ptr %4, align 8
  %62 = call noundef i32 @_ZNK11dtTileCache12getTileCountEv(ptr noundef nonnull align 8 dereferenceable(912) %61)
  %63 = icmp slt i32 %60, %62
  br i1 %63, label %64, label %116

64:                                               ; preds = %59
  %65 = load ptr, ptr %4, align 8
  %66 = load i32, ptr %11, align 4
  %67 = call noundef ptr @_ZNK11dtTileCache7getTileEi(ptr noundef nonnull align 8 dereferenceable(912) %65, i32 noundef %66)
  store ptr %67, ptr %12, align 8
  %68 = load ptr, ptr %12, align 8
  %69 = getelementptr inbounds %struct.dtCompressedTile, ptr %68, i32 0, i32 1
  %70 = load ptr, ptr %69, align 8
  %71 = icmp ne ptr %70, null
  br i1 %71, label %73, label %72

72:                                               ; preds = %64
  br label %113

73:                                               ; preds = %64
  %74 = load ptr, ptr %4, align 8
  %75 = load ptr, ptr %12, align 8
  %76 = getelementptr inbounds %struct.dtCompressedTile, ptr %75, i32 0, i32 1
  %77 = load ptr, ptr %76, align 8
  %78 = getelementptr inbounds [3 x float], ptr %6, i64 0, i64 0
  %79 = getelementptr inbounds [3 x float], ptr %7, i64 0, i64 0
  call void @_ZNK11dtTileCache19calcTightTileBoundsEPK22dtTileCacheLayerHeaderPfS3_(ptr noundef nonnull align 8 dereferenceable(912) %74, ptr noundef %77, ptr noundef %78, ptr noundef %79)
  %80 = load i32, ptr %11, align 4
  %81 = call noundef i32 @_Z10duIntToColii(i32 noundef %80, i32 noundef 255)
  store i32 %81, ptr %13, align 4
  %82 = load ptr, ptr %4, align 8
  %83 = call noundef ptr @_ZNK11dtTileCache9getParamsEv(ptr noundef nonnull align 8 dereferenceable(912) %82)
  %84 = getelementptr inbounds %struct.dtTileCacheParams, ptr %83, i32 0, i32 1
  %85 = load float, ptr %84, align 4
  %86 = fmul float %85, 0x3FB99999A0000000
  store float %86, ptr %14, align 4
  %87 = load ptr, ptr %3, align 8
  %88 = getelementptr inbounds [3 x float], ptr %6, i64 0, i64 0
  %89 = load float, ptr %88, align 4
  %90 = load float, ptr %14, align 4
  %91 = fsub float %89, %90
  %92 = getelementptr inbounds [3 x float], ptr %6, i64 0, i64 1
  %93 = load float, ptr %92, align 4
  %94 = load float, ptr %14, align 4
  %95 = fsub float %93, %94
  %96 = getelementptr inbounds [3 x float], ptr %6, i64 0, i64 2
  %97 = load float, ptr %96, align 4
  %98 = load float, ptr %14, align 4
  %99 = fsub float %97, %98
  %100 = getelementptr inbounds [3 x float], ptr %7, i64 0, i64 0
  %101 = load float, ptr %100, align 4
  %102 = load float, ptr %14, align 4
  %103 = fadd float %101, %102
  %104 = getelementptr inbounds [3 x float], ptr %7, i64 0, i64 1
  %105 = load float, ptr %104, align 4
  %106 = load float, ptr %14, align 4
  %107 = fadd float %105, %106
  %108 = getelementptr inbounds [3 x float], ptr %7, i64 0, i64 2
  %109 = load float, ptr %108, align 4
  %110 = load float, ptr %14, align 4
  %111 = fadd float %109, %110
  %112 = load i32, ptr %13, align 4
  call void @_Z18duDebugDrawBoxWireP11duDebugDrawffffffjf(ptr noundef %87, float noundef %91, float noundef %95, float noundef %99, float noundef %103, float noundef %107, float noundef %111, i32 noundef %112, float noundef 2.000000e+00)
  br label %113

113:                                              ; preds = %73, %72
  %114 = load i32, ptr %11, align 4
  %115 = add nsw i32 %114, 1
  store i32 %115, ptr %11, align 4
  br label %59, !llvm.loop !12

116:                                              ; preds = %59
  ret void
}