; Function Attrs: mustprogress uwtable
define dso_local void @_Z9drawTilesP11duDebugDrawP11dtTileCache(ptr noundef %0, ptr noundef %1) local_unnamed_addr #5 {
  %3 = alloca [6 x i32], align 16
  %4 = alloca [3 x float], align 4
  %5 = alloca [3 x float], align 4
  %6 = getelementptr inbounds i8, ptr %1, i64 84
  %7 = load i32, ptr %6, align 4
  %8 = icmp sgt i32 %7, 0
  br i1 %8, label %.lr.ph, label %._crit_edge

.lr.ph:                                           ; preds = %2
  %9 = getelementptr inbounds i8, ptr %1, i64 24
  %10 = getelementptr inbounds i8, ptr %4, i64 4
  %11 = getelementptr inbounds i8, ptr %4, i64 8
  %12 = getelementptr inbounds i8, ptr %5, i64 4
  %13 = getelementptr inbounds i8, ptr %5, i64 8
  br label %21

.preheader:                                       ; preds = %35
  %14 = icmp sgt i32 %36, 0
  br i1 %14, label %.lr.ph35, label %._crit_edge

.lr.ph35:                                         ; preds = %.preheader
  %15 = getelementptr inbounds i8, ptr %1, i64 24
  %16 = getelementptr inbounds i8, ptr %1, i64 52
  %17 = getelementptr inbounds i8, ptr %4, i64 4
  %18 = getelementptr inbounds i8, ptr %4, i64 8
  %19 = getelementptr inbounds i8, ptr %5, i64 4
  %20 = getelementptr inbounds i8, ptr %5, i64 8
  br label %39

21:                                               ; preds = %.lr.ph, %35
  %22 = phi i32 [ %7, %.lr.ph ], [ %36, %35 ]
  %indvars.iv = phi i64 [ 0, %.lr.ph ], [ %indvars.iv.next, %35 ]
  %23 = load ptr, ptr %9, align 8
  %24 = getelementptr inbounds %struct.dtCompressedTile, ptr %23, i64 %indvars.iv, i32 1
  %25 = load ptr, ptr %24, align 8
  %.not32 = icmp eq ptr %25, null
  br i1 %.not32, label %35, label %26

26:                                               ; preds = %21
  call void @_ZNK11dtTileCache19calcTightTileBoundsEPK22dtTileCacheLayerHeaderPfS3_(ptr noundef nonnull align 8 dereferenceable(912) %1, ptr noundef nonnull %25, ptr noundef nonnull %4, ptr noundef nonnull %5)
  %27 = trunc i64 %indvars.iv to i32
  %28 = call noundef i32 @_Z10duIntToColii(i32 noundef %27, i32 noundef 64)
  call void @_Z15duCalcBoxColorsPjjj(ptr noundef nonnull %3, i32 noundef %28, i32 noundef %28)
  %29 = load float, ptr %4, align 4
  %30 = load float, ptr %10, align 4
  %31 = load float, ptr %11, align 4
  %32 = load float, ptr %5, align 4
  %33 = load float, ptr %12, align 4
  %34 = load float, ptr %13, align 4
  call void @_Z14duDebugDrawBoxP11duDebugDrawffffffPKj(ptr noundef %0, float noundef %29, float noundef %30, float noundef %31, float noundef %32, float noundef %33, float noundef %34, ptr noundef nonnull %3)
  %.pre = load i32, ptr %6, align 4
  br label %35

35:                                               ; preds = %21, %26
  %36 = phi i32 [ %22, %21 ], [ %.pre, %26 ]
  %indvars.iv.next = add nuw nsw i64 %indvars.iv, 1
  %37 = sext i32 %36 to i64
  %38 = icmp slt i64 %indvars.iv.next, %37
  br i1 %38, label %21, label %.preheader, !llvm.loop !11

39:                                               ; preds = %.lr.ph35, %61
  %40 = phi i32 [ %36, %.lr.ph35 ], [ %62, %61 ]
  %indvars.iv37 = phi i64 [ 0, %.lr.ph35 ], [ %indvars.iv.next38, %61 ]
  %41 = load ptr, ptr %15, align 8
  %42 = getelementptr inbounds %struct.dtCompressedTile, ptr %41, i64 %indvars.iv37, i32 1
  %43 = load ptr, ptr %42, align 8
  %.not = icmp eq ptr %43, null
  br i1 %.not, label %61, label %44

44:                                               ; preds = %39
  call void @_ZNK11dtTileCache19calcTightTileBoundsEPK22dtTileCacheLayerHeaderPfS3_(ptr noundef nonnull align 8 dereferenceable(912) %1, ptr noundef nonnull %43, ptr noundef nonnull %4, ptr noundef nonnull %5)
  %45 = trunc i64 %indvars.iv37 to i32
  %46 = call noundef i32 @_Z10duIntToColii(i32 noundef %45, i32 noundef 255)
  %47 = load float, ptr %16, align 4
  %48 = fmul float %47, 0x3FB99999A0000000
  %49 = load float, ptr %4, align 4
  %50 = fsub float %49, %48
  %51 = load float, ptr %17, align 4
  %52 = fsub float %51, %48
  %53 = load float, ptr %18, align 4
  %54 = fsub float %53, %48
  %55 = load float, ptr %5, align 4
  %56 = fadd float %48, %55
  %57 = load float, ptr %19, align 4
  %58 = fadd float %48, %57
  %59 = load float, ptr %20, align 4
  %60 = fadd float %48, %59
  call void @_Z18duDebugDrawBoxWireP11duDebugDrawffffffjf(ptr noundef %0, float noundef %50, float noundef %52, float noundef %54, float noundef %56, float noundef %58, float noundef %60, i32 noundef %46, float noundef 2.000000e+00)
  %.pre40 = load i32, ptr %6, align 4
  br label %61

61:                                               ; preds = %39, %44
  %62 = phi i32 [ %40, %39 ], [ %.pre40, %44 ]
  %indvars.iv.next38 = add nuw nsw i64 %indvars.iv37, 1
  %63 = sext i32 %62 to i64
  %64 = icmp slt i64 %indvars.iv.next38, %63
  br i1 %64, label %39, label %._crit_edge, !llvm.loop !12

._crit_edge:                                      ; preds = %61, %2, %.preheader
  ret void
}